target datalayout = "e-m:e-p270:32:32-p271:32:32-p272:64:64-i64:64-i128:128-f80:128-n8:16:32:64-S128"
target triple = "x86_64-pc-linux-gnu"

@.str = private unnamed_addr constant [34 x i8] c"../openssl/crypto/evp/pmeth_lib.c\00", align 1
@__func__.EVP_PKEY_CTX_md = private unnamed_addr constant [16 x i8] c"EVP_PKEY_CTX_md\00", align 1

; Function Attrs: nounwind uwtable
define i32 @EVP_PKEY_CTX_md(ptr noundef %0, i32 noundef %1, i32 noundef %2, ptr noundef %3) #0 {
  %5 = alloca i32, align 4
  %6 = alloca ptr, align 8
  %7 = alloca i32, align 4
  %8 = alloca i32, align 4
  %9 = alloca ptr, align 8
  %10 = alloca ptr, align 8
  %11 = alloca i32, align 4
  store ptr %0, ptr %6, align 8, !tbaa !18
  store i32 %1, ptr %7, align 4, !tbaa !3
  store i32 %2, ptr %8, align 4, !tbaa !3
  store ptr %3, ptr %9, align 8, !tbaa !33
  call void @llvm.lifetime.start.p0(i64 8, ptr %10) #8
  %12 = load ptr, ptr %9, align 8, !tbaa !33
  %13 = icmp eq ptr %12, null
  br i1 %13, label %18, label %14

14:                                               ; preds = %4
  %15 = load ptr, ptr %9, align 8, !tbaa !33
  %16 = call ptr @EVP_get_digestbyname(ptr noundef %15)
  store ptr %16, ptr %10, align 8, !tbaa !109
  %17 = icmp eq ptr %16, null
  br i1 %17, label %18, label %19

18:                                               ; preds = %14, %4
  call void @ERR_new()
  call void @ERR_set_debug(ptr noundef @.str, i32 noundef 1614, ptr noundef @__func__.EVP_PKEY_CTX_md)
  call void (i32, i32, ptr, ...) @ERR_set_error(i32 noundef 6, i32 noundef 152, ptr noundef null)
  store i32 0, ptr %5, align 4
  store i32 1, ptr %11, align 4
  br label %25

19:                                               ; preds = %14
  %20 = load ptr, ptr %6, align 8, !tbaa !18
  %21 = load i32, ptr %7, align 4, !tbaa !3
  %22 = load i32, ptr %8, align 4, !tbaa !3
  %23 = load ptr, ptr %10, align 8, !tbaa !109
  %24 = call i32 @EVP_PKEY_CTX_ctrl(ptr noundef %20, i32 noundef -1, i32 noundef %21, i32 noundef %22, i32 noundef 0, ptr noundef %23)
  store i32 %24, ptr %5, align 4
  store i32 1, ptr %11, align 4
  br label %25

25:                                               ; preds = %19, %18
  call void @llvm.lifetime.end.p0(i64 8, ptr %10) #8
  %26 = load i32, ptr %5, align 4
  ret i32 %26
}