; Function Attrs: nounwind uwtable
define i32 @EVP_PKEY_CTX_md(ptr noundef %0, i32 noundef %1, i32 noundef %2, ptr noundef %3) local_unnamed_addr #0 {
  %5 = icmp eq ptr %3, null
  br i1 %5, label %9, label %6

6:                                                ; preds = %4
  %7 = tail call ptr @EVP_get_digestbyname(ptr noundef nonnull %3) #10
  %8 = icmp eq ptr %7, null
  br i1 %8, label %9, label %10

9:                                                ; preds = %6, %4
  tail call void @ERR_new() #10
  tail call void @ERR_set_debug(ptr noundef nonnull @.str, i32 noundef 1614, ptr noundef nonnull @__func__.EVP_PKEY_CTX_md) #10
  tail call void (i32, i32, ptr, ...) @ERR_set_error(i32 noundef 6, i32 noundef 152, ptr noundef null) #10
  br label %12

10:                                               ; preds = %6
  %11 = tail call i32 @EVP_PKEY_CTX_ctrl(ptr noundef %0, i32 noundef -1, i32 noundef %1, i32 noundef %2, i32 noundef 0, ptr noundef nonnull %7)
  br label %12

12:                                               ; preds = %10, %9
  %.0 = phi i32 [ 0, %9 ], [ %11, %10 ]
  ret i32 %.0
}